; Function Attrs: mustprogress nounwind uwtable
define hidden noundef ptr @_ZN2os5Linux8dll_pathEPv(ptr noundef %0) local_unnamed_addr #0 align 2 {
  %2 = alloca ptr, align 8
  %3 = call i32 @dlinfo(ptr noundef %0, i32 noundef 2, ptr noundef nonnull %2) #26
  %4 = icmp eq i32 %3, 0
  br i1 %4, label %5, label %9

5:                                                ; preds = %1
  %6 = load ptr, ptr %2, align 8
  %7 = getelementptr inbounds i8, ptr %6, i64 8
  %8 = load ptr, ptr %7, align 8
  br label %9

9:                                                ; preds = %5, %1
  %.0 = phi ptr [ %8, %5 ], [ null, %1 ]
  ret ptr %.0
}